target datalayout = "e-m:e-p270:32:32-p271:32:32-p272:64:64-i64:64-i128:128-f80:128-n8:16:32:64-S128"
target triple = "x86_64-pc-linux-gnu"

@hf_bta2dp_l_bit = internal global i32 0, align 4
@hf_bta2dp_cp_bit = internal global i32 0, align 4
@hf_bta2dp_reserved = internal global i32 0, align 4
@ett_bta2dp_cph_scms_t = internal global i32 0, align 4
@proto_bta2dp_cph_scms_t = internal global i32 0, align 4

; Function Attrs: null_pointer_is_valid sspstrong uwtable
define internal i32 @dissect_a2dp_cp_scms_t(ptr noundef %0, ptr noundef %1, ptr noundef %2, ptr noundef %3) #0 {
  %5 = alloca ptr, align 8
  %6 = alloca ptr, align 8
  %7 = alloca ptr, align 8
  %8 = alloca ptr, align 8
  %9 = alloca ptr, align 8
  %10 = alloca ptr, align 8
  %11 = alloca i32, align 4
  store ptr %0, ptr %5, align 8
  store ptr %1, ptr %6, align 8
  store ptr %2, ptr %7, align 8
  store ptr %3, ptr %8, align 8
  call void @llvm.lifetime.start.p0(i64 8, ptr %9) #7
  call void @llvm.lifetime.start.p0(i64 8, ptr %10) #7
  call void @llvm.lifetime.start.p0(i64 4, ptr %11) #7
  store i32 0, ptr %11, align 4
  %12 = load ptr, ptr %7, align 8
  %13 = load i32, ptr @proto_bta2dp_cph_scms_t, align 4
  %14 = load ptr, ptr %5, align 8
  %15 = load i32, ptr %11, align 4
  %16 = call ptr @proto_tree_add_item(ptr noundef %12, i32 noundef %13, ptr noundef %14, i32 noundef %15, i32 noundef 1, i32 noundef 0)
  store ptr %16, ptr %9, align 8
  %17 = load ptr, ptr %9, align 8
  %18 = load i32, ptr @ett_bta2dp_cph_scms_t, align 4
  %19 = call ptr @proto_item_add_subtree(ptr noundef %17, i32 noundef %18)
  store ptr %19, ptr %10, align 8
  %20 = load ptr, ptr %10, align 8
  %21 = load i32, ptr @hf_bta2dp_reserved, align 4
  %22 = load ptr, ptr %5, align 8
  %23 = load i32, ptr %11, align 4
  %24 = call ptr @proto_tree_add_item(ptr noundef %20, i32 noundef %21, ptr noundef %22, i32 noundef %23, i32 noundef 1, i32 noundef 0)
  %25 = load ptr, ptr %10, align 8
  %26 = load i32, ptr @hf_bta2dp_cp_bit, align 4
  %27 = load ptr, ptr %5, align 8
  %28 = load i32, ptr %11, align 4
  %29 = call ptr @proto_tree_add_item(ptr noundef %25, i32 noundef %26, ptr noundef %27, i32 noundef %28, i32 noundef 1, i32 noundef 0)
  %30 = load ptr, ptr %10, align 8
  %31 = load i32, ptr @hf_bta2dp_l_bit, align 4
  %32 = load ptr, ptr %5, align 8
  %33 = load i32, ptr %11, align 4
  %34 = call ptr @proto_tree_add_item(ptr noundef %30, i32 noundef %31, ptr noundef %32, i32 noundef %33, i32 noundef 1, i32 noundef 0)
  %35 = load i32, ptr %11, align 4
  %36 = add i32 %35, 1
  store i32 %36, ptr %11, align 4
  %37 = load i32, ptr %11, align 4
  call void @llvm.lifetime.end.p0(i64 4, ptr %11) #7
  call void @llvm.lifetime.end.p0(i64 8, ptr %10) #7
  call void @llvm.lifetime.end.p0(i64 8, ptr %9) #7
  ret i32 %37
}